target datalayout = "e-m:e-p270:32:32-p271:32:32-p272:64:64-i64:64-i128:128-f80:128-n8:16:32:64-S128"
target triple = "x86_64-pc-linux-gnu"

%"class.QtPrivate::RefCount" = type { %class.QBasicAtomicInteger }
%class.QBasicAtomicInteger = type { %"struct.std::atomic" }
%"struct.std::atomic" = type { %"struct.std::__atomic_base" }
%"struct.std::__atomic_base" = type { i32 }
%struct.QArrayData = type { %"class.QtPrivate::RefCount", i32, i32, i64 }
%class.QString = type { ptr }
%class.QObject = type { ptr, %class.QScopedPointer }
%class.QScopedPointer = type { ptr }
%class.QualityMapperDialog = type { %class.QDockWidget, %"class.Ui::QualityMapperDialogClass", ptr, ptr, %class.QGraphicsScene, [3 x ptr], double, i8, i8, %class.QList, i32, ptr, ptr, ptr, %class.QGraphicsScene, ptr, [3 x %class.QList.22], ptr, %class.QString, %class.QList, %class.QList, i8, %class.QList.25, %class.QList, ptr, ptr }
%class.QDockWidget = type { %class.QWidget }
%class.QWidget = type { %class.QObject, %class.QPaintDevice, ptr }
%class.QPaintDevice = type { ptr, i16, ptr }
%"class.Ui::QualityMapperDialogClass" = type { %class.Ui_QualityMapperDialogClass }
%class.Ui_QualityMapperDialogClass = type { ptr, ptr, ptr, ptr, ptr, ptr, ptr, ptr, ptr, ptr, ptr, ptr, ptr, ptr, ptr, ptr, ptr, ptr, ptr, ptr, ptr, ptr, ptr, ptr, ptr, ptr, ptr, ptr, ptr, ptr, ptr, ptr, ptr, ptr, ptr, ptr, ptr, ptr, ptr, ptr, ptr, ptr, ptr, ptr, ptr, ptr, ptr, ptr, ptr, ptr, ptr, ptr, ptr, ptr, ptr, ptr, ptr, ptr, ptr, ptr, ptr, ptr, ptr, ptr, ptr, ptr, ptr, ptr }
%class.QGraphicsScene = type { %class.QObject }
%class.QList.22 = type { %union.anon.24 }
%union.anon.24 = type { %struct.QListData }
%struct.QListData = type { ptr }
%class.QList.25 = type { %union.anon.27 }
%union.anon.27 = type { %struct.QListData }
%class.QList = type { %union.anon }
%union.anon = type { %struct.QListData }

@_ZN10QArrayData11shared_nullE = external global [2 x %struct.QArrayData], align 16

; Function Attrs: mustprogress nounwind uwtable
define linkonce_odr noundef ptr @_ZN10QArrayData10sharedNullEv() #4 comdat align 2 {
  ret ptr @_ZN10QArrayData11shared_nullE
}

; Function Attrs: mustprogress nounwind uwtable
define linkonce_odr noundef ptr @_ZN15QTypedArrayDataItE10sharedNullEv() #4 comdat align 2 {
  %1 = call noundef ptr @_ZN10QArrayData10sharedNullEv() #3
  ret ptr %1
}

; Function Attrs: mustprogress uwtable
define linkonce_odr noundef nonnull align 8 dereferenceable(8) ptr @_ZN7QString6setNumEfci(ptr noundef nonnull align 8 dereferenceable(8) %0, float noundef %1, i8 noundef signext %2, i32 noundef %3) #5 comdat align 2 {
  %5 = alloca ptr, align 8
  %6 = alloca float, align 4
  %7 = alloca i8, align 1
  %8 = alloca i32, align 4
  store ptr %0, ptr %5, align 8
  store float %1, ptr %6, align 4
  store i8 %2, ptr %7, align 1
  store i32 %3, ptr %8, align 4
  %9 = load ptr, ptr %5, align 8
  %10 = load float, ptr %6, align 4
  %11 = fpext float %10 to double
  %12 = load i8, ptr %7, align 1
  %13 = load i32, ptr %8, align 4
  %14 = call noundef nonnull align 8 dereferenceable(8) ptr @_ZN7QString6setNumEdci(ptr noundef nonnull align 8 dereferenceable(8) %9, double noundef %11, i8 noundef signext %12, i32 noundef %13)
  ret ptr %14
}

; Function Attrs: mustprogress nounwind uwtable
define linkonce_odr void @_ZN7QStringC2Ev(ptr noundef nonnull align 8 dereferenceable(8) %0) unnamed_addr #4 comdat align 2 {
  %2 = alloca ptr, align 8
  store ptr %0, ptr %2, align 8
  %3 = load ptr, ptr %2, align 8
  %4 = getelementptr inbounds %class.QString, ptr %3, i32 0, i32 0
  %5 = call noundef ptr @_ZN15QTypedArrayDataItE10sharedNullEv() #3
  store ptr %5, ptr %4, align 8
  ret void
}

; Function Attrs: mustprogress uwtable
define void @_ZN19QualityMapperDialog26on_midSpinBox_valueChangedEd(ptr noundef nonnull align 8 dereferenceable(824) %0, double noundef %1) #5 align 2 personality ptr @__gxx_personality_v0 {
  %3 = alloca ptr, align 8
  %4 = alloca double, align 8
  %5 = alloca %class.QString, align 8
  %6 = alloca ptr, align 8
  %7 = alloca i32, align 4
  store ptr %0, ptr %3, align 8
  store double %1, ptr %4, align 8
  %8 = load ptr, ptr %3, align 8
  %9 = getelementptr inbounds %class.QualityMapperDialog, ptr %8, i32 0, i32 10
  store i32 1, ptr %9, align 8
  %10 = getelementptr inbounds %class.QualityMapperDialog, ptr %8, i32 0, i32 10
  %11 = load i32, ptr %10, align 8
  %12 = icmp ne i32 %11, 2
  br i1 %12, label %13, label %18

13:                                               ; preds = %2
  %14 = getelementptr inbounds %class.QualityMapperDialog, ptr %8, i32 0, i32 1
  %15 = getelementptr inbounds %class.Ui_QualityMapperDialogClass, ptr %14, i32 0, i32 43
  %16 = load ptr, ptr %15, align 8
  %17 = call noundef zeroext i1 @_ZN7QObject12blockSignalsEb(ptr noundef nonnull align 8 dereferenceable(16) %16, i1 noundef zeroext true) #3
  br label %18

18:                                               ; preds = %13, %2
  call void @_ZN7QStringC2Ev(ptr noundef nonnull align 8 dereferenceable(8) %5) #3
  %19 = getelementptr inbounds %class.QualityMapperDialog, ptr %8, i32 0, i32 1
  %20 = getelementptr inbounds %class.Ui_QualityMapperDialogClass, ptr %19, i32 0, i32 46
  %21 = load ptr, ptr %20, align 8
  %22 = invoke noundef double @_ZNK14QDoubleSpinBox5valueEv(ptr noundef nonnull align 8 dereferenceable(48) %21)
          to label %23 unwind label %61

23:                                               ; preds = %18
  %24 = getelementptr inbounds %class.QualityMapperDialog, ptr %8, i32 0, i32 1
  %25 = getelementptr inbounds %class.Ui_QualityMapperDialogClass, ptr %24, i32 0, i32 38
  %26 = load ptr, ptr %25, align 8
  %27 = invoke noundef double @_ZNK14QDoubleSpinBox5valueEv(ptr noundef nonnull align 8 dereferenceable(48) %26)
          to label %28 unwind label %61

28:                                               ; preds = %23
  %29 = fsub double %22, %27
  %30 = fcmp ogt double %29, 0.000000e+00
  br i1 %30, label %31, label %65

31:                                               ; preds = %28
  %32 = getelementptr inbounds %class.QualityMapperDialog, ptr %8, i32 0, i32 1
  %33 = getelementptr inbounds %class.Ui_QualityMapperDialogClass, ptr %32, i32 0, i32 41
  %34 = load ptr, ptr %33, align 8
  %35 = invoke noundef double @_ZNK14QDoubleSpinBox5valueEv(ptr noundef nonnull align 8 dereferenceable(48) %34)
          to label %36 unwind label %61

36:                                               ; preds = %31
  %37 = getelementptr inbounds %class.QualityMapperDialog, ptr %8, i32 0, i32 1
  %38 = getelementptr inbounds %class.Ui_QualityMapperDialogClass, ptr %37, i32 0, i32 38
  %39 = load ptr, ptr %38, align 8
  %40 = invoke noundef double @_ZNK14QDoubleSpinBox5valueEv(ptr noundef nonnull align 8 dereferenceable(48) %39)
          to label %41 unwind label %61

41:                                               ; preds = %36
  %42 = fsub double %35, %40
  %43 = fptrunc double %42 to float
  %44 = getelementptr inbounds %class.QualityMapperDialog, ptr %8, i32 0, i32 1
  %45 = getelementptr inbounds %class.Ui_QualityMapperDialogClass, ptr %44, i32 0, i32 46
  %46 = load ptr, ptr %45, align 8
  %47 = invoke noundef double @_ZNK14QDoubleSpinBox5valueEv(ptr noundef nonnull align 8 dereferenceable(48) %46)
          to label %48 unwind label %61

48:                                               ; preds = %41
  %49 = getelementptr inbounds %class.QualityMapperDialog, ptr %8, i32 0, i32 1
  %50 = getelementptr inbounds %class.Ui_QualityMapperDialogClass, ptr %49, i32 0, i32 38
  %51 = load ptr, ptr %50, align 8
  %52 = invoke noundef double @_ZNK14QDoubleSpinBox5valueEv(ptr noundef nonnull align 8 dereferenceable(48) %51)
          to label %53 unwind label %61

53:                                               ; preds = %48
  %54 = fsub double %47, %52
  %55 = fptrunc double %54 to float
  %56 = invoke noundef float @_Z21absolute2RelativeValfff(float noundef %43, float noundef %55)
          to label %57 unwind label %61

57:                                               ; preds = %53
  %58 = fmul float 1.000000e+02, %56
  %59 = invoke noundef nonnull align 8 dereferenceable(8) ptr @_ZN7QString6setNumEfci(ptr noundef nonnull align 8 dereferenceable(8) %5, float noundef %58, i8 noundef signext 103, i32 noundef 4)
          to label %60 unwind label %61

60:                                               ; preds = %57
  br label %68

61:                                               ; preds = %68, %65, %57, %53, %48, %41, %36, %31, %23, %18
  %62 = landingpad { ptr, i32 }
          cleanup
  %63 = extractvalue { ptr, i32 } %62, 0
  store ptr %63, ptr %6, align 8
  %64 = extractvalue { ptr, i32 } %62, 1
  store i32 %64, ptr %7, align 4
  call void @_ZN7QStringD2Ev(ptr noundef nonnull align 8 dereferenceable(8) %5) #3
  br label %83

65:                                               ; preds = %28
  %66 = invoke noundef nonnull align 8 dereferenceable(8) ptr @_ZN7QString6setNumEfci(ptr noundef nonnull align 8 dereferenceable(8) %5, float noundef 5.000000e+01, i8 noundef signext 103, i32 noundef 6)
          to label %67 unwind label %61

67:                                               ; preds = %65
  br label %68

68:                                               ; preds = %67, %60
  %69 = getelementptr inbounds %class.QualityMapperDialog, ptr %8, i32 0, i32 1
  %70 = getelementptr inbounds %class.Ui_QualityMapperDialogClass, ptr %69, i32 0, i32 43
  %71 = load ptr, ptr %70, align 8
  invoke void @_ZN9QLineEdit7setTextERK7QString(ptr noundef nonnull align 8 dereferenceable(48) %71, ptr noundef nonnull align 8 dereferenceable(8) %5)
          to label %72 unwind label %61

72:                                               ; preds = %68
  %73 = getelementptr inbounds %class.QualityMapperDialog, ptr %8, i32 0, i32 10
  %74 = load i32, ptr %73, align 8
  %75 = icmp ne i32 %74, 2
  br i1 %75, label %76, label %81

76:                                               ; preds = %72
  %77 = getelementptr inbounds %class.QualityMapperDialog, ptr %8, i32 0, i32 1
  %78 = getelementptr inbounds %class.Ui_QualityMapperDialogClass, ptr %77, i32 0, i32 43
  %79 = load ptr, ptr %78, align 8
  %80 = call noundef zeroext i1 @_ZN7QObject12blockSignalsEb(ptr noundef nonnull align 8 dereferenceable(16) %79, i1 noundef zeroext false) #3
  br label %81

81:                                               ; preds = %76, %72
  %82 = getelementptr inbounds %class.QualityMapperDialog, ptr %8, i32 0, i32 10
  store i32 0, ptr %82, align 8
  call void @_ZN7QStringD2Ev(ptr noundef nonnull align 8 dereferenceable(8) %5) #3
  ret void

83:                                               ; preds = %61
  %84 = load ptr, ptr %6, align 8
  %85 = load i32, ptr %7, align 4
  %86 = insertvalue { ptr, i32 } poison, ptr %84, 0
  %87 = insertvalue { ptr, i32 } %86, i32 %85, 1
  resume { ptr, i32 } %87
}