; Function Attrs: mustprogress uwtable
define void @_ZN19QualityMapperDialog26on_midSpinBox_valueChangedEd(ptr nocapture noundef nonnull align 8 dereferenceable(824) %0, double noundef %1) local_unnamed_addr #9 align 2 personality ptr @__gxx_personality_v0 {
  %3 = alloca %class.QString, align 8
  %4 = getelementptr inbounds i8, ptr %0, i64 672
  store i32 1, ptr %4, align 8
  %5 = getelementptr inbounds i8, ptr %0, i64 392
  %6 = load ptr, ptr %5, align 8
  %7 = tail call noundef zeroext i1 @_ZN7QObject12blockSignalsEb(ptr noundef nonnull align 8 dereferenceable(16) %6, i1 noundef zeroext true) #23
  store ptr @_ZN10QArrayData11shared_nullE, ptr %3, align 8
  %8 = getelementptr inbounds i8, ptr %0, i64 416
  %9 = load ptr, ptr %8, align 8
  %10 = invoke noundef double @_ZNK14QDoubleSpinBox5valueEv(ptr noundef nonnull align 8 dereferenceable(48) %9)
          to label %11 unwind label %40

11:                                               ; preds = %2
  %12 = getelementptr inbounds i8, ptr %0, i64 352
  %13 = load ptr, ptr %12, align 8
  %14 = invoke noundef double @_ZNK14QDoubleSpinBox5valueEv(ptr noundef nonnull align 8 dereferenceable(48) %13)
          to label %15 unwind label %40

15:                                               ; preds = %11
  %16 = fsub double %10, %14
  %17 = fcmp ogt double %16, 0.000000e+00
  br i1 %17, label %18, label %.invoke

18:                                               ; preds = %15
  %19 = getelementptr inbounds i8, ptr %0, i64 376
  %20 = load ptr, ptr %19, align 8
  %21 = invoke noundef double @_ZNK14QDoubleSpinBox5valueEv(ptr noundef nonnull align 8 dereferenceable(48) %20)
          to label %22 unwind label %40

22:                                               ; preds = %18
  %23 = load ptr, ptr %12, align 8
  %24 = invoke noundef double @_ZNK14QDoubleSpinBox5valueEv(ptr noundef nonnull align 8 dereferenceable(48) %23)
          to label %25 unwind label %40

25:                                               ; preds = %22
  %26 = fsub double %21, %24
  %27 = fptrunc double %26 to float
  %28 = load ptr, ptr %8, align 8
  %29 = invoke noundef double @_ZNK14QDoubleSpinBox5valueEv(ptr noundef nonnull align 8 dereferenceable(48) %28)
          to label %30 unwind label %40

30:                                               ; preds = %25
  %31 = load ptr, ptr %12, align 8
  %32 = invoke noundef double @_ZNK14QDoubleSpinBox5valueEv(ptr noundef nonnull align 8 dereferenceable(48) %31)
          to label %33 unwind label %40

33:                                               ; preds = %30
  %34 = fsub double %29, %32
  %35 = fptrunc double %34 to float
  %36 = invoke noundef float @_Z21absolute2RelativeValfff(float noundef %27, float noundef %35)
          to label %37 unwind label %40

37:                                               ; preds = %33
  %38 = fmul float %36, 1.000000e+02
  %39 = fpext float %38 to double
  br label %.invoke

40:                                               ; preds = %.invoke, %_ZN7QString6setNumEfci.exit, %33, %30, %25, %22, %18, %11, %2
  %41 = landingpad { ptr, i32 }
          cleanup
  call void @_ZN7QStringD2Ev(ptr noundef nonnull align 8 dereferenceable(8) %3) #23
  resume { ptr, i32 } %41

.invoke:                                          ; preds = %15, %37
  %42 = phi double [ %39, %37 ], [ 5.000000e+01, %15 ]
  %43 = phi i32 [ 4, %37 ], [ 6, %15 ]
  %44 = invoke noundef nonnull align 8 dereferenceable(8) ptr @_ZN7QString6setNumEdci(ptr noundef nonnull align 8 dereferenceable(8) %3, double noundef %42, i8 noundef signext 103, i32 noundef %43)
          to label %_ZN7QString6setNumEfci.exit unwind label %40

_ZN7QString6setNumEfci.exit:                      ; preds = %.invoke
  %45 = load ptr, ptr %5, align 8
  invoke void @_ZN9QLineEdit7setTextERK7QString(ptr noundef nonnull align 8 dereferenceable(48) %45, ptr noundef nonnull align 8 dereferenceable(8) %3)
          to label %46 unwind label %40

46:                                               ; preds = %_ZN7QString6setNumEfci.exit
  %47 = load i32, ptr %4, align 8
  %.not = icmp eq i32 %47, 2
  br i1 %.not, label %51, label %48

48:                                               ; preds = %46
  %49 = load ptr, ptr %5, align 8
  %50 = call noundef zeroext i1 @_ZN7QObject12blockSignalsEb(ptr noundef nonnull align 8 dereferenceable(16) %49, i1 noundef zeroext false) #23
  br label %51

51:                                               ; preds = %48, %46
  store i32 0, ptr %4, align 8
  %52 = load ptr, ptr %3, align 8
  %53 = load atomic i32, ptr %52 monotonic, align 4
  switch i32 %53, label %_ZN9QtPrivate8RefCount5derefEv.exit.i [
    i32 0, label %_ZN9QtPrivate8RefCount5derefEv.exit.thread2.i
    i32 -1, label %_ZN7QStringD2Ev.exit
  ]

_ZN9QtPrivate8RefCount5derefEv.exit.i:            ; preds = %51
  %54 = atomicrmw sub ptr %52, i32 1 seq_cst, align 4
  %.not.i = icmp eq i32 %54, 1
  br i1 %.not.i, label %_ZN9QtPrivate8RefCount5derefEv.exit._ZN9QtPrivate8RefCount5derefEv.exit.thread2_crit_edge.i, label %_ZN7QStringD2Ev.exit

_ZN9QtPrivate8RefCount5derefEv.exit._ZN9QtPrivate8RefCount5derefEv.exit.thread2_crit_edge.i: ; preds = %_ZN9QtPrivate8RefCount5derefEv.exit.i
  %.pre.i = load ptr, ptr %3, align 8
  br label %_ZN9QtPrivate8RefCount5derefEv.exit.thread2.i

_ZN9QtPrivate8RefCount5derefEv.exit.thread2.i:    ; preds = %_ZN9QtPrivate8RefCount5derefEv.exit._ZN9QtPrivate8RefCount5derefEv.exit.thread2_crit_edge.i, %51
  %55 = phi ptr [ %.pre.i, %_ZN9QtPrivate8RefCount5derefEv.exit._ZN9QtPrivate8RefCount5derefEv.exit.thread2_crit_edge.i ], [ %52, %51 ]
  call void @_ZN10QArrayData10deallocateEPS_mm(ptr noundef %55, i64 noundef 2, i64 noundef 8) #23
  br label %_ZN7QStringD2Ev.exit

_ZN7QStringD2Ev.exit:                             ; preds = %51, %_ZN9QtPrivate8RefCount5derefEv.exit.i, %_ZN9QtPrivate8RefCount5derefEv.exit.thread2.i
  ret void
}